; Function Attrs: nounwind sspstrong uwtable
define internal i64 @d_lite_offset(i64 noundef %0) #0 {
  %2 = tail call ptr @rb_check_typeddata(i64 noundef %0, ptr noundef nonnull @d_lite_type) #21
  %3 = load i32, ptr %2, align 8, !tbaa !47
  %4 = and i32 %3, 128
  %.not.i.i = icmp eq i32 %4, 0
  br i1 %.not.i.i, label %m_of_in_day.exit, label %5

5:                                                ; preds = %1
  tail call fastcc void @get_c_jd(ptr noundef nonnull %2)
  %6 = getelementptr inbounds nuw i8, ptr %2, i64 32
  %7 = load i32, ptr %6, align 8, !tbaa !47
  %8 = sext i32 %7 to i64
  %9 = shl nsw i64 %8, 1
  %10 = or disjoint i64 %9, 1
  br label %m_of_in_day.exit

m_of_in_day.exit:                                 ; preds = %1, %5
  %.0.i.i = phi i64 [ %10, %5 ], [ 1, %1 ]
  %11 = tail call i64 @rb_rational_new(i64 noundef range(i64 1, 0) %.0.i.i, i64 noundef 172801) #21
  ret i64 %11
}